(lp0
ccopy_reg
_reconstructor
p1
(c__main__
rectangleGameObject
p2
c__builtin__
object
p3
Ntp4
Rp5
(dp6
S'name'
p7
S'anotherobj'
p8
sS'_w'
p9
I359
sS'selecting'
p10
I00
sS'vertex'
p11
(lp12
(lp13
I-180
aI97
aa(lp14
I179
aI97
aa(lp15
I179
aI-97
aa(lp16
I-180
aI-97
aasS'actor'
p17
S'actor:copy()'
p18
sS'_sy'
p19
I1
sS'_sx'
p20
I1
sS'sinr'
p21
F0.0
sS'cosr'
p22
F1.0
sS'_h'
p23
I194
sS'y'
p24
I189
sS'x'
p25
I274
sS'rot'
p26
I0
sba.